target datalayout = "e-m:e-p270:32:32-p271:32:32-p272:64:64-i64:64-i128:128-f80:128-n8:16:32:64-S128"
target triple = "x86_64-pc-linux-gnu"

; Function Attrs: nounwind uwtable
define internal void @pred4x4_vertical_add_8_c(ptr noundef %0, ptr noundef %1, i64 noundef %2) #1 {
  %4 = alloca ptr, align 8
  %5 = alloca ptr, align 8
  %6 = alloca i64, align 8
  %7 = alloca i32, align 4
  %8 = alloca ptr, align 8
  %9 = alloca ptr, align 8
  %10 = alloca i8, align 1
  store ptr %0, ptr %4, align 8, !tbaa !12
  store ptr %1, ptr %5, align 8, !tbaa !16
  store i64 %2, ptr %6, align 8, !tbaa !14
  call void @llvm.lifetime.start.p0(i64 4, ptr %7) #9
  call void @llvm.lifetime.start.p0(i64 8, ptr %8) #9
  %11 = load ptr, ptr %4, align 8, !tbaa !12
  store ptr %11, ptr %8, align 8, !tbaa !12
  call void @llvm.lifetime.start.p0(i64 8, ptr %9) #9
  %12 = load ptr, ptr %5, align 8, !tbaa !16
  store ptr %12, ptr %9, align 8, !tbaa !16
  %13 = load i64, ptr %6, align 8, !tbaa !14
  %14 = ashr i64 %13, 0
  store i64 %14, ptr %6, align 8, !tbaa !14
  %15 = load i64, ptr %6, align 8, !tbaa !14
  %16 = load ptr, ptr %8, align 8, !tbaa !12
  %17 = sub i64 0, %15
  %18 = getelementptr inbounds i8, ptr %16, i64 %17
  store ptr %18, ptr %8, align 8, !tbaa !12
  store i32 0, ptr %7, align 4, !tbaa !9
  br label %19

19:                                               ; preds = %78, %3
  %20 = load i32, ptr %7, align 4, !tbaa !9
  %21 = icmp slt i32 %20, 4
  br i1 %21, label %22, label %81

22:                                               ; preds = %19
  call void @llvm.lifetime.start.p0(i64 1, ptr %10) #9
  %23 = load ptr, ptr %8, align 8, !tbaa !12
  %24 = getelementptr inbounds i8, ptr %23, i64 0
  %25 = load i8, ptr %24, align 1, !tbaa !18
  store i8 %25, ptr %10, align 1, !tbaa !18
  %26 = load ptr, ptr %9, align 8, !tbaa !16
  %27 = getelementptr inbounds i16, ptr %26, i64 0
  %28 = load i16, ptr %27, align 2, !tbaa !19
  %29 = sext i16 %28 to i32
  %30 = load i8, ptr %10, align 1, !tbaa !18
  %31 = zext i8 %30 to i32
  %32 = add nsw i32 %31, %29
  %33 = trunc i32 %32 to i8
  store i8 %33, ptr %10, align 1, !tbaa !18
  %34 = load ptr, ptr %8, align 8, !tbaa !12
  %35 = load i64, ptr %6, align 8, !tbaa !14
  %36 = mul nsw i64 1, %35
  %37 = getelementptr inbounds i8, ptr %34, i64 %36
  store i8 %33, ptr %37, align 1, !tbaa !18
  %38 = load ptr, ptr %9, align 8, !tbaa !16
  %39 = getelementptr inbounds i16, ptr %38, i64 4
  %40 = load i16, ptr %39, align 2, !tbaa !19
  %41 = sext i16 %40 to i32
  %42 = load i8, ptr %10, align 1, !tbaa !18
  %43 = zext i8 %42 to i32
  %44 = add nsw i32 %43, %41
  %45 = trunc i32 %44 to i8
  store i8 %45, ptr %10, align 1, !tbaa !18
  %46 = load ptr, ptr %8, align 8, !tbaa !12
  %47 = load i64, ptr %6, align 8, !tbaa !14
  %48 = mul nsw i64 2, %47
  %49 = getelementptr inbounds i8, ptr %46, i64 %48
  store i8 %45, ptr %49, align 1, !tbaa !18
  %50 = load ptr, ptr %9, align 8, !tbaa !16
  %51 = getelementptr inbounds i16, ptr %50, i64 8
  %52 = load i16, ptr %51, align 2, !tbaa !19
  %53 = sext i16 %52 to i32
  %54 = load i8, ptr %10, align 1, !tbaa !18
  %55 = zext i8 %54 to i32
  %56 = add nsw i32 %55, %53
  %57 = trunc i32 %56 to i8
  store i8 %57, ptr %10, align 1, !tbaa !18
  %58 = load ptr, ptr %8, align 8, !tbaa !12
  %59 = load i64, ptr %6, align 8, !tbaa !14
  %60 = mul nsw i64 3, %59
  %61 = getelementptr inbounds i8, ptr %58, i64 %60
  store i8 %57, ptr %61, align 1, !tbaa !18
  %62 = load i8, ptr %10, align 1, !tbaa !18
  %63 = zext i8 %62 to i32
  %64 = load ptr, ptr %9, align 8, !tbaa !16
  %65 = getelementptr inbounds i16, ptr %64, i64 12
  %66 = load i16, ptr %65, align 2, !tbaa !19
  %67 = sext i16 %66 to i32
  %68 = add nsw i32 %63, %67
  %69 = trunc i32 %68 to i8
  %70 = load ptr, ptr %8, align 8, !tbaa !12
  %71 = load i64, ptr %6, align 8, !tbaa !14
  %72 = mul nsw i64 4, %71
  %73 = getelementptr inbounds i8, ptr %70, i64 %72
  store i8 %69, ptr %73, align 1, !tbaa !18
  %74 = load ptr, ptr %8, align 8, !tbaa !12
  %75 = getelementptr inbounds nuw i8, ptr %74, i32 1
  store ptr %75, ptr %8, align 8, !tbaa !12
  %76 = load ptr, ptr %9, align 8, !tbaa !16
  %77 = getelementptr inbounds nuw i16, ptr %76, i32 1
  store ptr %77, ptr %9, align 8, !tbaa !16
  call void @llvm.lifetime.end.p0(i64 1, ptr %10) #9
  br label %78

78:                                               ; preds = %22
  %79 = load i32, ptr %7, align 4, !tbaa !9
  %80 = add nsw i32 %79, 1
  store i32 %80, ptr %7, align 4, !tbaa !9
  br label %19, !llvm.loop !292

81:                                               ; preds = %19
  %82 = load ptr, ptr %5, align 8, !tbaa !16
  call void @llvm.memset.p0.i64(ptr align 2 %82, i8 0, i64 32, i1 false)
  call void @llvm.lifetime.end.p0(i64 8, ptr %9) #9
  call void @llvm.lifetime.end.p0(i64 8, ptr %8) #9
  call void @llvm.lifetime.end.p0(i64 4, ptr %7) #9
  ret void
}

; Function Attrs: nounwind uwtable
define internal void @pred8x16_vertical_add_8_c(ptr noundef %0, ptr noundef %1, ptr noundef %2, i64 noundef %3) #1 {
  %5 = alloca ptr, align 8
  %6 = alloca ptr, align 8
  %7 = alloca ptr, align 8
  %8 = alloca i64, align 8
  %9 = alloca i32, align 4
  store ptr %0, ptr %5, align 8, !tbaa !12
  store ptr %1, ptr %6, align 8, !tbaa !63
  store ptr %2, ptr %7, align 8, !tbaa !16
  store i64 %3, ptr %8, align 8, !tbaa !14
  call void @llvm.lifetime.start.p0(i64 4, ptr %9) #9
  store i32 0, ptr %9, align 4, !tbaa !9
  br label %10

10:                                               ; preds = %29, %4
  %11 = load i32, ptr %9, align 4, !tbaa !9
  %12 = icmp slt i32 %11, 4
  br i1 %12, label %13, label %32

13:                                               ; preds = %10
  %14 = load ptr, ptr %5, align 8, !tbaa !12
  %15 = load ptr, ptr %6, align 8, !tbaa !63
  %16 = load i32, ptr %9, align 4, !tbaa !9
  %17 = sext i32 %16 to i64
  %18 = getelementptr inbounds i32, ptr %15, i64 %17
  %19 = load i32, ptr %18, align 4, !tbaa !9
  %20 = sext i32 %19 to i64
  %21 = getelementptr inbounds i8, ptr %14, i64 %20
  %22 = load ptr, ptr %7, align 8, !tbaa !16
  %23 = load i32, ptr %9, align 4, !tbaa !9
  %24 = mul nsw i32 %23, 16
  %25 = sext i32 %24 to i64
  %26 = mul i64 %25, 1
  %27 = getelementptr inbounds nuw i16, ptr %22, i64 %26
  %28 = load i64, ptr %8, align 8, !tbaa !14
  call void @pred4x4_vertical_add_8_c(ptr noundef %21, ptr noundef %27, i64 noundef %28)
  br label %29

29:                                               ; preds = %13
  %30 = load i32, ptr %9, align 4, !tbaa !9
  %31 = add nsw i32 %30, 1
  store i32 %31, ptr %9, align 4, !tbaa !9
  br label %10, !llvm.loop !300

32:                                               ; preds = %10
  store i32 4, ptr %9, align 4, !tbaa !9
  br label %33

33:                                               ; preds = %53, %32
  %34 = load i32, ptr %9, align 4, !tbaa !9
  %35 = icmp slt i32 %34, 8
  br i1 %35, label %36, label %56

36:                                               ; preds = %33
  %37 = load ptr, ptr %5, align 8, !tbaa !12
  %38 = load ptr, ptr %6, align 8, !tbaa !63
  %39 = load i32, ptr %9, align 4, !tbaa !9
  %40 = add nsw i32 %39, 4
  %41 = sext i32 %40 to i64
  %42 = getelementptr inbounds i32, ptr %38, i64 %41
  %43 = load i32, ptr %42, align 4, !tbaa !9
  %44 = sext i32 %43 to i64
  %45 = getelementptr inbounds i8, ptr %37, i64 %44
  %46 = load ptr, ptr %7, align 8, !tbaa !16
  %47 = load i32, ptr %9, align 4, !tbaa !9
  %48 = mul nsw i32 %47, 16
  %49 = sext i32 %48 to i64
  %50 = mul i64 %49, 1
  %51 = getelementptr inbounds nuw i16, ptr %46, i64 %50
  %52 = load i64, ptr %8, align 8, !tbaa !14
  call void @pred4x4_vertical_add_8_c(ptr noundef %45, ptr noundef %51, i64 noundef %52)
  br label %53

53:                                               ; preds = %36
  %54 = load i32, ptr %9, align 4, !tbaa !9
  %55 = add nsw i32 %54, 1
  store i32 %55, ptr %9, align 4, !tbaa !9
  br label %33, !llvm.loop !301

56:                                               ; preds = %33
  call void @llvm.lifetime.end.p0(i64 4, ptr %9) #9
  ret void
}