; Function Attrs: nofree norecurse nosync nounwind memory(argmem: readwrite) uwtable
define internal void @pred8x16_vertical_add_8_c(ptr noundef captures(none) %0, ptr noundef readonly captures(none) %1, ptr noundef captures(none) %2, i64 noundef %3) #3 {
  %5 = sub i64 0, %3
  %invariant.gep = getelementptr i8, ptr %0, i64 %5
  %6 = shl nsw i64 %3, 1
  %7 = mul nsw i64 %3, 3
  %8 = shl nsw i64 %3, 2
  br label %9

.preheader:                                       ; preds = %pred4x4_vertical_add_8_c.exit
  %invariant.gep21 = getelementptr inbounds nuw i8, ptr %1, i64 16
  br label %38

9:                                                ; preds = %4, %pred4x4_vertical_add_8_c.exit
  %indvars.iv = phi i64 [ 0, %4 ], [ %indvars.iv.next, %pred4x4_vertical_add_8_c.exit ]
  %10 = getelementptr inbounds nuw i32, ptr %1, i64 %indvars.iv
  %11 = load i32, ptr %10, align 4, !tbaa !56
  %12 = sext i32 %11 to i64
  %.idx = shl nuw nsw i64 %indvars.iv, 5
  %13 = getelementptr inbounds nuw i8, ptr %2, i64 %.idx
  %gep = getelementptr i8, ptr %invariant.gep, i64 %12
  br label %14

14:                                               ; preds = %14, %9
  %.030.i = phi ptr [ %13, %9 ], [ %36, %14 ]
  %.02629.i = phi ptr [ %gep, %9 ], [ %35, %14 ]
  %.02728.i = phi i32 [ 0, %9 ], [ %37, %14 ]
  %15 = load i8, ptr %.02629.i, align 1, !tbaa !8
  %16 = load i16, ptr %.030.i, align 2, !tbaa !9
  %17 = trunc i16 %16 to i8
  %18 = add i8 %15, %17
  %19 = getelementptr inbounds i8, ptr %.02629.i, i64 %3
  store i8 %18, ptr %19, align 1, !tbaa !8
  %20 = getelementptr inbounds nuw i8, ptr %.030.i, i64 8
  %21 = load i16, ptr %20, align 2, !tbaa !9
  %22 = trunc i16 %21 to i8
  %23 = add i8 %18, %22
  %24 = getelementptr inbounds i8, ptr %.02629.i, i64 %6
  store i8 %23, ptr %24, align 1, !tbaa !8
  %25 = getelementptr inbounds nuw i8, ptr %.030.i, i64 16
  %26 = load i16, ptr %25, align 2, !tbaa !9
  %27 = trunc i16 %26 to i8
  %28 = add i8 %23, %27
  %29 = getelementptr inbounds i8, ptr %.02629.i, i64 %7
  store i8 %28, ptr %29, align 1, !tbaa !8
  %30 = getelementptr inbounds nuw i8, ptr %.030.i, i64 24
  %31 = load i16, ptr %30, align 2, !tbaa !9
  %32 = trunc i16 %31 to i8
  %33 = add i8 %28, %32
  %34 = getelementptr inbounds i8, ptr %.02629.i, i64 %8
  store i8 %33, ptr %34, align 1, !tbaa !8
  %35 = getelementptr inbounds nuw i8, ptr %.02629.i, i64 1
  %36 = getelementptr inbounds nuw i8, ptr %.030.i, i64 2
  %37 = add nuw nsw i32 %.02728.i, 1
  %exitcond.not.i = icmp eq i32 %37, 4
  br i1 %exitcond.not.i, label %pred4x4_vertical_add_8_c.exit, label %14, !llvm.loop !294

pred4x4_vertical_add_8_c.exit:                    ; preds = %14
  tail call void @llvm.memset.p0.i64(ptr noundef nonnull align 2 dereferenceable(32) %13, i8 0, i64 32, i1 false)
  %indvars.iv.next = add nuw nsw i64 %indvars.iv, 1
  %exitcond.not = icmp eq i64 %indvars.iv.next, 4
  br i1 %exitcond.not, label %.preheader, label %9, !llvm.loop !302

38:                                               ; preds = %.preheader, %pred4x4_vertical_add_8_c.exit19
  %indvars.iv27 = phi i64 [ 4, %.preheader ], [ %indvars.iv.next28, %pred4x4_vertical_add_8_c.exit19 ]
  %gep22 = getelementptr inbounds nuw i32, ptr %invariant.gep21, i64 %indvars.iv27
  %39 = load i32, ptr %gep22, align 4, !tbaa !56
  %40 = sext i32 %39 to i64
  %.idx31 = shl nuw nsw i64 %indvars.iv27, 5
  %41 = getelementptr inbounds nuw i8, ptr %2, i64 %.idx31
  %gep24 = getelementptr i8, ptr %invariant.gep, i64 %40
  br label %42

42:                                               ; preds = %42, %38
  %.030.i15 = phi ptr [ %41, %38 ], [ %64, %42 ]
  %.02629.i16 = phi ptr [ %gep24, %38 ], [ %63, %42 ]
  %.02728.i17 = phi i32 [ 0, %38 ], [ %65, %42 ]
  %43 = load i8, ptr %.02629.i16, align 1, !tbaa !8
  %44 = load i16, ptr %.030.i15, align 2, !tbaa !9
  %45 = trunc i16 %44 to i8
  %46 = add i8 %43, %45
  %47 = getelementptr inbounds i8, ptr %.02629.i16, i64 %3
  store i8 %46, ptr %47, align 1, !tbaa !8
  %48 = getelementptr inbounds nuw i8, ptr %.030.i15, i64 8
  %49 = load i16, ptr %48, align 2, !tbaa !9
  %50 = trunc i16 %49 to i8
  %51 = add i8 %46, %50
  %52 = getelementptr inbounds i8, ptr %.02629.i16, i64 %6
  store i8 %51, ptr %52, align 1, !tbaa !8
  %53 = getelementptr inbounds nuw i8, ptr %.030.i15, i64 16
  %54 = load i16, ptr %53, align 2, !tbaa !9
  %55 = trunc i16 %54 to i8
  %56 = add i8 %51, %55
  %57 = getelementptr inbounds i8, ptr %.02629.i16, i64 %7
  store i8 %56, ptr %57, align 1, !tbaa !8
  %58 = getelementptr inbounds nuw i8, ptr %.030.i15, i64 24
  %59 = load i16, ptr %58, align 2, !tbaa !9
  %60 = trunc i16 %59 to i8
  %61 = add i8 %56, %60
  %62 = getelementptr inbounds i8, ptr %.02629.i16, i64 %8
  store i8 %61, ptr %62, align 1, !tbaa !8
  %63 = getelementptr inbounds nuw i8, ptr %.02629.i16, i64 1
  %64 = getelementptr inbounds nuw i8, ptr %.030.i15, i64 2
  %65 = add nuw nsw i32 %.02728.i17, 1
  %exitcond.not.i18 = icmp eq i32 %65, 4
  br i1 %exitcond.not.i18, label %pred4x4_vertical_add_8_c.exit19, label %42, !llvm.loop !294

pred4x4_vertical_add_8_c.exit19:                  ; preds = %42
  tail call void @llvm.memset.p0.i64(ptr noundef nonnull align 2 dereferenceable(32) %41, i8 0, i64 32, i1 false)
  %indvars.iv.next28 = add nuw nsw i64 %indvars.iv27, 1
  %exitcond30.not = icmp eq i64 %indvars.iv.next28, 8
  br i1 %exitcond30.not, label %66, label %38, !llvm.loop !303

66:                                               ; preds = %pred4x4_vertical_add_8_c.exit19
  ret void
}